target datalayout = "e-m:e-p270:32:32-p271:32:32-p272:64:64-i64:64-i128:128-f80:128-n8:16:32:64-S128"
target triple = "x86_64-pc-linux-gnu"

%"class.sls::datatype_plugin" = type { %"class.sls::plugin.base", ptr, ptr, %class.obj_map, %class.obj_map.0, i8, %"class.datatype::util", %class.ref_vector, %class.ref_vector, %class.ref_vector, %class.ref, %"struct.sls::datatype_plugin::stats", [4 x i8], %class.obj_map.5, %class.obj_map.10 }
%"class.sls::plugin.base" = type <{ ptr, ptr, ptr, i32 }>
%class.obj_map = type { %class.core_hashtable }
%class.core_hashtable = type <{ ptr, i32, i32, i32, [4 x i8] }>
%class.obj_map.0 = type { %class.core_hashtable.1 }
%class.core_hashtable.1 = type <{ ptr, i32, i32, i32, [4 x i8] }>
%"class.datatype::util" = type { ptr, i32, ptr }
%class.ref_vector = type { %class.ref_vector_core }
%class.ref_vector_core = type { %class.ref_manager_wrapper, %class.ptr_vector }
%class.ref_manager_wrapper = type { ptr }
%class.ptr_vector = type { %class.vector }
%class.vector = type { ptr }
%class.ref = type { ptr }
%"struct.sls::datatype_plugin::stats" = type { i32 }
%class.obj_map.5 = type { %class.core_hashtable.6 }
%class.core_hashtable.6 = type <{ ptr, i32, i32, i32, [4 x i8] }>
%class.obj_map.10 = type { %class.core_hashtable.11 }
%class.core_hashtable.11 = type <{ ptr, i32, i32, i32, [4 x i8] }>
%class.ast = type { i32, i32, i32, i32 }
%class.func_decl = type { %class.decl, i32, ptr, [0 x ptr] }
%class.decl = type { %class.ast, %class.symbol, ptr }
%class.symbol = type { ptr }
%class.decl_info = type <{ i32, i32, %class.vector.146, i8, [7 x i8] }>
%class.vector.146 = type { ptr }

; Function Attrs: mustprogress nounwind uwtable
define linkonce_odr hidden noundef i32 @_ZNK9decl_info13get_decl_kindEv(ptr noundef nonnull align 8 dereferenceable(17) %0) #5 comdat align 2 {
  %2 = alloca ptr, align 8
  store ptr %0, ptr %2, align 8, !tbaa !426
  %3 = load ptr, ptr %2, align 8
  %4 = getelementptr inbounds nuw %class.decl_info, ptr %3, i32 0, i32 1
  %5 = load i32, ptr %4, align 4, !tbaa !431
  ret i32 %5
}

; Function Attrs: mustprogress nounwind uwtable
define linkonce_odr hidden noundef i32 @_ZNK9decl_info13get_family_idEv(ptr noundef nonnull align 8 dereferenceable(17) %0) #5 comdat align 2 {
  %2 = alloca ptr, align 8
  store ptr %0, ptr %2, align 8, !tbaa !426
  %3 = load ptr, ptr %2, align 8
  %4 = getelementptr inbounds nuw %class.decl_info, ptr %3, i32 0, i32 0
  %5 = load i32, ptr %4, align 8, !tbaa !427
  ret i32 %5
}

; Function Attrs: mustprogress uwtable
define linkonce_odr hidden noundef i32 @_ZNK4decl13get_decl_kindEv(ptr noundef nonnull align 8 dereferenceable(32) %0) #4 comdat align 2 {
  %2 = alloca ptr, align 8
  store ptr %0, ptr %2, align 8, !tbaa !423
  %3 = load ptr, ptr %2, align 8
  %4 = getelementptr inbounds nuw %class.decl, ptr %3, i32 0, i32 2
  %5 = load ptr, ptr %4, align 8, !tbaa !425
  %6 = icmp eq ptr %5, null
  br i1 %6, label %7, label %8

7:                                                ; preds = %1
  br label %12

8:                                                ; preds = %1
  %9 = getelementptr inbounds nuw %class.decl, ptr %3, i32 0, i32 2
  %10 = load ptr, ptr %9, align 8, !tbaa !425
  %11 = call noundef i32 @_ZNK9decl_info13get_decl_kindEv(ptr noundef nonnull align 8 dereferenceable(17) %10)
  br label %12

12:                                               ; preds = %8, %7
  %13 = phi i32 [ -1, %7 ], [ %11, %8 ]
  ret i32 %13
}

; Function Attrs: mustprogress uwtable
define linkonce_odr hidden noundef i32 @_ZNK4decl13get_family_idEv(ptr noundef nonnull align 8 dereferenceable(32) %0) #4 comdat align 2 {
  %2 = alloca ptr, align 8
  store ptr %0, ptr %2, align 8, !tbaa !423
  %3 = load ptr, ptr %2, align 8
  %4 = getelementptr inbounds nuw %class.decl, ptr %3, i32 0, i32 2
  %5 = load ptr, ptr %4, align 8, !tbaa !425
  %6 = icmp eq ptr %5, null
  br i1 %6, label %7, label %8

7:                                                ; preds = %1
  br label %12

8:                                                ; preds = %1
  %9 = getelementptr inbounds nuw %class.decl, ptr %3, i32 0, i32 2
  %10 = load ptr, ptr %9, align 8, !tbaa !425
  %11 = call noundef i32 @_ZNK9decl_info13get_family_idEv(ptr noundef nonnull align 8 dereferenceable(17) %10)
  br label %12

12:                                               ; preds = %8, %7
  %13 = phi i32 [ -1, %7 ], [ %11, %8 ]
  ret i32 %13
}

; Function Attrs: inlinehint mustprogress uwtable
define linkonce_odr hidden noundef zeroext i1 @_Z10is_decl_ofPK9func_declii(ptr noundef %0, i32 noundef %1, i32 noundef %2) #11 comdat {
  %4 = alloca ptr, align 8
  %5 = alloca i32, align 4
  %6 = alloca i32, align 4
  store ptr %0, ptr %4, align 8, !tbaa !89
  store i32 %1, ptr %5, align 4, !tbaa !79
  store i32 %2, ptr %6, align 4, !tbaa !79
  %7 = load ptr, ptr %4, align 8, !tbaa !89
  %8 = call noundef i32 @_ZNK4decl13get_family_idEv(ptr noundef nonnull align 8 dereferenceable(32) %7)
  %9 = load i32, ptr %5, align 4, !tbaa !79
  %10 = icmp eq i32 %8, %9
  br i1 %10, label %11, label %16

11:                                               ; preds = %3
  %12 = load ptr, ptr %4, align 8, !tbaa !89
  %13 = call noundef i32 @_ZNK4decl13get_decl_kindEv(ptr noundef nonnull align 8 dereferenceable(32) %12)
  %14 = load i32, ptr %6, align 4, !tbaa !79
  %15 = icmp eq i32 %13, %14
  br label %16

16:                                               ; preds = %11, %3
  %17 = phi i1 [ false, %3 ], [ %15, %11 ]
  ret i1 %17
}

; Function Attrs: mustprogress uwtable
define linkonce_odr hidden noundef zeroext i1 @_ZNK8datatype4util5is_isEP9func_decl(ptr noundef nonnull align 8 dereferenceable(24) %0, ptr noundef %1) #4 comdat align 2 {
  %3 = alloca ptr, align 8
  %4 = alloca ptr, align 8
  store ptr %0, ptr %3, align 8, !tbaa !65
  store ptr %1, ptr %4, align 8, !tbaa !89
  %5 = load ptr, ptr %3, align 8
  %6 = load ptr, ptr %4, align 8, !tbaa !89
  %7 = call noundef i32 @_ZNK8datatype4util3fidEv(ptr noundef nonnull align 8 dereferenceable(24) %5)
  %8 = call noundef zeroext i1 @_Z10is_decl_ofPK9func_declii(ptr noundef %6, i32 noundef %7, i32 noundef 2)
  ret i1 %8
}

; Function Attrs: mustprogress nounwind uwtable
define linkonce_odr hidden noundef ptr @_ZNK9func_decl10get_domainEj(ptr noundef nonnull align 8 dereferenceable(48) %0, i32 noundef %1) #5 comdat align 2 {
  %3 = alloca ptr, align 8
  %4 = alloca i32, align 4
  store ptr %0, ptr %3, align 8, !tbaa !89
  store i32 %1, ptr %4, align 4, !tbaa !79
  %5 = load ptr, ptr %3, align 8
  %6 = getelementptr inbounds nuw %class.func_decl, ptr %5, i32 0, i32 3
  %7 = load i32, ptr %4, align 4, !tbaa !79
  %8 = zext i32 %7 to i64
  %9 = getelementptr inbounds nuw [0 x ptr], ptr %6, i64 0, i64 %8
  %10 = load ptr, ptr %9, align 8, !tbaa !154
  ret ptr %10
}

; Function Attrs: mustprogress nounwind uwtable
define linkonce_odr hidden noundef ptr @_ZNK9func_decl9get_rangeEv(ptr noundef nonnull align 8 dereferenceable(48) %0) #5 comdat align 2 {
  %2 = alloca ptr, align 8
  store ptr %0, ptr %2, align 8, !tbaa !89
  %3 = load ptr, ptr %2, align 8
  %4 = getelementptr inbounds nuw %class.func_decl, ptr %3, i32 0, i32 2
  %5 = load ptr, ptr %4, align 8, !tbaa !274
  ret ptr %5
}

; Function Attrs: mustprogress nounwind uwtable
define linkonce_odr hidden noundef i32 @_ZNK9func_decl9get_arityEv(ptr noundef nonnull align 8 dereferenceable(48) %0) #5 comdat align 2 {
  %2 = alloca ptr, align 8
  store ptr %0, ptr %2, align 8, !tbaa !89
  %3 = load ptr, ptr %2, align 8
  %4 = getelementptr inbounds nuw %class.func_decl, ptr %3, i32 0, i32 1
  %5 = load i32, ptr %4, align 8, !tbaa !268
  ret i32 %5
}

; Function Attrs: mustprogress uwtable
define linkonce_odr hidden noundef zeroext i1 @_ZNK8datatype4util14is_constructorEP9func_decl(ptr noundef nonnull align 8 dereferenceable(24) %0, ptr noundef %1) #4 comdat align 2 {
  %3 = alloca ptr, align 8
  %4 = alloca ptr, align 8
  store ptr %0, ptr %3, align 8, !tbaa !65
  store ptr %1, ptr %4, align 8, !tbaa !89
  %5 = load ptr, ptr %3, align 8
  %6 = load ptr, ptr %4, align 8, !tbaa !89
  %7 = call noundef i32 @_ZNK8datatype4util3fidEv(ptr noundef nonnull align 8 dereferenceable(24) %5)
  %8 = call noundef zeroext i1 @_Z10is_decl_ofPK9func_declii(ptr noundef %6, i32 noundef %7, i32 noundef 0)
  ret i1 %8
}

; Function Attrs: mustprogress uwtable
define linkonce_odr hidden noundef zeroext i1 @_ZNK8datatype4util11is_accessorEP9func_decl(ptr noundef nonnull align 8 dereferenceable(24) %0, ptr noundef %1) #4 comdat align 2 {
  %3 = alloca ptr, align 8
  %4 = alloca ptr, align 8
  store ptr %0, ptr %3, align 8, !tbaa !65
  store ptr %1, ptr %4, align 8, !tbaa !89
  %5 = load ptr, ptr %3, align 8
  %6 = load ptr, ptr %4, align 8, !tbaa !89
  %7 = call noundef i32 @_ZNK8datatype4util3fidEv(ptr noundef nonnull align 8 dereferenceable(24) %5)
  %8 = call noundef zeroext i1 @_Z10is_decl_ofPK9func_declii(ptr noundef %6, i32 noundef %7, i32 noundef 3)
  ret i1 %8
}

; Function Attrs: mustprogress uwtable
define hidden noundef zeroext i1 @_ZNK3sls15datatype_plugin14check_ackermanEP9func_decl(ptr noundef nonnull align 8 dereferenceable(240) %0, ptr noundef %1) unnamed_addr #4 align 2 {
  %3 = alloca i1, align 1
  %4 = alloca ptr, align 8
  %5 = alloca ptr, align 8
  %6 = alloca i32, align 4
  %7 = alloca i32, align 4
  store ptr %0, ptr %4, align 8, !tbaa !3
  store ptr %1, ptr %5, align 8, !tbaa !89
  %8 = load ptr, ptr %4, align 8
  %9 = getelementptr inbounds nuw %"class.sls::datatype_plugin", ptr %8, i32 0, i32 6
  %10 = load ptr, ptr %5, align 8, !tbaa !89
  %11 = call noundef zeroext i1 @_ZNK8datatype4util11is_accessorEP9func_decl(ptr noundef nonnull align 8 dereferenceable(24) %9, ptr noundef %10)
  br i1 %11, label %12, label %13

12:                                               ; preds = %2
  store i1 true, ptr %3, align 1
  br label %45

13:                                               ; preds = %2
  %14 = getelementptr inbounds nuw %"class.sls::datatype_plugin", ptr %8, i32 0, i32 6
  %15 = load ptr, ptr %5, align 8, !tbaa !89
  %16 = call noundef zeroext i1 @_ZNK8datatype4util14is_constructorEP9func_decl(ptr noundef nonnull align 8 dereferenceable(24) %14, ptr noundef %15)
  br i1 %16, label %17, label %39

17:                                               ; preds = %13
  call void @llvm.lifetime.start.p0(i64 4, ptr %6) #3
  store i32 0, ptr %6, align 4, !tbaa !79
  br label %18

18:                                               ; preds = %33, %17
  %19 = load i32, ptr %6, align 4, !tbaa !79
  %20 = load ptr, ptr %5, align 8, !tbaa !89
  %21 = call noundef i32 @_ZNK9func_decl9get_arityEv(ptr noundef nonnull align 8 dereferenceable(48) %20)
  %22 = icmp ult i32 %19, %21
  br i1 %22, label %24, label %23

23:                                               ; preds = %18
  store i32 2, ptr %7, align 4
  br label %36

24:                                               ; preds = %18
  %25 = load ptr, ptr %5, align 8, !tbaa !89
  %26 = call noundef ptr @_ZNK9func_decl9get_rangeEv(ptr noundef nonnull align 8 dereferenceable(48) %25)
  %27 = load ptr, ptr %5, align 8, !tbaa !89
  %28 = load i32, ptr %6, align 4, !tbaa !79
  %29 = call noundef ptr @_ZNK9func_decl10get_domainEj(ptr noundef nonnull align 8 dereferenceable(48) %27, i32 noundef %28)
  %30 = icmp ne ptr %26, %29
  br i1 %30, label %31, label %32

31:                                               ; preds = %24
  store i1 true, ptr %3, align 1
  store i32 1, ptr %7, align 4
  br label %36

32:                                               ; preds = %24
  br label %33

33:                                               ; preds = %32
  %34 = load i32, ptr %6, align 4, !tbaa !79
  %35 = add i32 %34, 1
  store i32 %35, ptr %6, align 4, !tbaa !79
  br label %18, !llvm.loop !267

36:                                               ; preds = %31, %23
  call void @llvm.lifetime.end.p0(i64 4, ptr %6) #3
  %37 = load i32, ptr %7, align 4
  switch i32 %37, label %47 [
    i32 2, label %38
    i32 1, label %45
  ]

38:                                               ; preds = %36
  store i1 false, ptr %3, align 1
  br label %45

39:                                               ; preds = %13
  %40 = getelementptr inbounds nuw %"class.sls::datatype_plugin", ptr %8, i32 0, i32 6
  %41 = load ptr, ptr %5, align 8, !tbaa !89
  %42 = call noundef zeroext i1 @_ZNK8datatype4util5is_isEP9func_decl(ptr noundef nonnull align 8 dereferenceable(24) %40, ptr noundef %41)
  br i1 %42, label %43, label %44

43:                                               ; preds = %39
  store i1 false, ptr %3, align 1
  br label %45

44:                                               ; preds = %39
  store i1 true, ptr %3, align 1
  br label %45

45:                                               ; preds = %44, %43, %38, %36, %12
  %46 = load i1, ptr %3, align 1
  ret i1 %46

47:                                               ; preds = %36
  unreachable
}