; Function Attrs: mustprogress uwtable
define hidden noundef zeroext i1 @_ZNK3sls15datatype_plugin14check_ackermanEP9func_decl(ptr noundef nonnull align 8 dereferenceable(240) %0, ptr noundef readonly captures(none) %1) unnamed_addr #3 align 2 {
  %3 = getelementptr inbounds nuw i8, ptr %0, i64 104
  %4 = tail call noundef i32 @_ZNK8datatype4util3fidEv(ptr noundef nonnull align 8 dereferenceable(24) %3)
  %5 = getelementptr inbounds nuw i8, ptr %1, i64 24
  %6 = load ptr, ptr %5, align 8, !tbaa !125
  %7 = icmp eq ptr %6, null
  br i1 %7, label %_ZNK8datatype4util11is_accessorEP9func_decl.exit.thread, label %_ZNK4decl13get_family_idEv.exit.thread.i.i

_ZNK4decl13get_family_idEv.exit.thread.i.i:       ; preds = %2
  %8 = load i32, ptr %6, align 8, !tbaa !130
  %9 = icmp eq i32 %8, %4
  br i1 %9, label %_ZNK8datatype4util11is_accessorEP9func_decl.exit, label %_ZNK8datatype4util11is_accessorEP9func_decl.exit.thread

_ZNK8datatype4util11is_accessorEP9func_decl.exit: ; preds = %_ZNK4decl13get_family_idEv.exit.thread.i.i
  %10 = getelementptr inbounds nuw i8, ptr %6, i64 4
  %11 = load i32, ptr %10, align 4, !tbaa !159
  %12 = icmp eq i32 %11, 3
  br i1 %12, label %_ZNK8datatype4util5is_isEP9func_decl.exit.thread, label %_ZNK8datatype4util11is_accessorEP9func_decl.exit.thread

_ZNK8datatype4util11is_accessorEP9func_decl.exit.thread: ; preds = %2, %_ZNK4decl13get_family_idEv.exit.thread.i.i, %_ZNK8datatype4util11is_accessorEP9func_decl.exit
  %13 = tail call noundef i32 @_ZNK8datatype4util3fidEv(ptr noundef nonnull align 8 dereferenceable(24) %3)
  %14 = load ptr, ptr %5, align 8, !tbaa !125
  %15 = icmp eq ptr %14, null
  br i1 %15, label %_ZNK8datatype4util14is_constructorEP9func_decl.exit.thread, label %_ZNK4decl13get_family_idEv.exit.thread.i.i13

_ZNK4decl13get_family_idEv.exit.thread.i.i13:     ; preds = %_ZNK8datatype4util11is_accessorEP9func_decl.exit.thread
  %16 = load i32, ptr %14, align 8, !tbaa !130
  %17 = icmp eq i32 %16, %13
  br i1 %17, label %_ZNK8datatype4util14is_constructorEP9func_decl.exit, label %_ZNK8datatype4util14is_constructorEP9func_decl.exit.thread

_ZNK8datatype4util14is_constructorEP9func_decl.exit: ; preds = %_ZNK4decl13get_family_idEv.exit.thread.i.i13
  %18 = getelementptr inbounds nuw i8, ptr %14, i64 4
  %19 = load i32, ptr %18, align 4, !tbaa !159
  %20 = icmp eq i32 %19, 0
  br i1 %20, label %.preheader, label %_ZNK8datatype4util14is_constructorEP9func_decl.exit.thread

.preheader:                                       ; preds = %_ZNK8datatype4util14is_constructorEP9func_decl.exit
  %21 = getelementptr inbounds nuw i8, ptr %1, i64 32
  %22 = load i32, ptr %21, align 8, !tbaa !250
  %.not1718.not = icmp eq i32 %22, 0
  br i1 %.not1718.not, label %_ZNK8datatype4util5is_isEP9func_decl.exit.thread, label %.lr.ph

.lr.ph:                                           ; preds = %.preheader
  %23 = getelementptr inbounds nuw i8, ptr %1, i64 40
  %24 = load ptr, ptr %23, align 8, !tbaa !252
  %25 = getelementptr inbounds nuw i8, ptr %1, i64 48
  %wide.trip.count = zext i32 %22 to i64
  br label %26

26:                                               ; preds = %26, %.lr.ph
  %indvars.iv = phi i64 [ 0, %.lr.ph ], [ %indvars.iv.next, %26 ]
  %27 = getelementptr inbounds nuw [0 x ptr], ptr %25, i64 0, i64 %indvars.iv
  %28 = load ptr, ptr %27, align 8, !tbaa !253
  %.not.not = icmp ne ptr %24, %28
  %indvars.iv.next = add nuw nsw i64 %indvars.iv, 1
  %exitcond.not = icmp eq i64 %indvars.iv.next, %wide.trip.count
  %or.cond = select i1 %.not.not, i1 true, i1 %exitcond.not
  br i1 %or.cond, label %_ZNK8datatype4util5is_isEP9func_decl.exit.thread, label %26, !llvm.loop !254

_ZNK8datatype4util14is_constructorEP9func_decl.exit.thread: ; preds = %_ZNK8datatype4util11is_accessorEP9func_decl.exit.thread, %_ZNK4decl13get_family_idEv.exit.thread.i.i13, %_ZNK8datatype4util14is_constructorEP9func_decl.exit
  %29 = tail call noundef i32 @_ZNK8datatype4util3fidEv(ptr noundef nonnull align 8 dereferenceable(24) %3)
  %30 = load ptr, ptr %5, align 8, !tbaa !125
  %31 = icmp eq ptr %30, null
  br i1 %31, label %_ZNK8datatype4util5is_isEP9func_decl.exit.thread, label %_ZNK4decl13get_family_idEv.exit.thread.i.i14

_ZNK4decl13get_family_idEv.exit.thread.i.i14:     ; preds = %_ZNK8datatype4util14is_constructorEP9func_decl.exit.thread
  %32 = load i32, ptr %30, align 8, !tbaa !130
  %33 = icmp eq i32 %32, %29
  br i1 %33, label %_ZNK8datatype4util5is_isEP9func_decl.exit, label %_ZNK8datatype4util5is_isEP9func_decl.exit.thread

_ZNK8datatype4util5is_isEP9func_decl.exit:        ; preds = %_ZNK4decl13get_family_idEv.exit.thread.i.i14
  %34 = getelementptr inbounds nuw i8, ptr %30, i64 4
  %35 = load i32, ptr %34, align 4, !tbaa !159
  %.fr = freeze i32 %35
  %36 = icmp ne i32 %.fr, 2
  br label %_ZNK8datatype4util5is_isEP9func_decl.exit.thread

_ZNK8datatype4util5is_isEP9func_decl.exit.thread: ; preds = %26, %.preheader, %_ZNK8datatype4util5is_isEP9func_decl.exit, %_ZNK8datatype4util14is_constructorEP9func_decl.exit.thread, %_ZNK4decl13get_family_idEv.exit.thread.i.i14, %_ZNK8datatype4util11is_accessorEP9func_decl.exit
  %.012 = phi i1 [ true, %_ZNK8datatype4util11is_accessorEP9func_decl.exit ], [ true, %_ZNK4decl13get_family_idEv.exit.thread.i.i14 ], [ true, %_ZNK8datatype4util14is_constructorEP9func_decl.exit.thread ], [ %36, %_ZNK8datatype4util5is_isEP9func_decl.exit ], [ false, %.preheader ], [ %.not.not, %26 ]
  ret i1 %.012
}